; ModuleID = '61/452.c'
source_filename = "61/452.c"
target datalayout = "e-m:e-p270:32:32-p271:32:32-p272:64:64-i64:64-f80:128-n8:16:32:64-S128"
target triple = "x86_64-pc-linux-gnu"

@.str = private unnamed_addr constant [3 x i8] c"%d\00", align 1
@.str.1 = private unnamed_addr constant [3 x i8] c"1\0A\00", align 1
@.str.2 = private unnamed_addr constant [4 x i8] c"%d\0A\00", align 1

; Function Attrs: noinline nounwind uwtable
define dso_local i32 @main() #0 {
  %1 = alloca i32, align 4
  %2 = alloca i32, align 4
  %3 = alloca i32, align 4
  %4 = alloca i32, align 4
  %5 = alloca i32, align 4
  %6 = alloca i32, align 4
  %7 = alloca i32, align 4
  store i32 0, i32* %1, align 4
  store i32 1, i32* %2, align 4
  store i32 1, i32* %3, align 4
  %8 = call i32 (i8*, ...) @__isoc99_scanf(i8* getelementptr inbounds ([3 x i8], [3 x i8]* @.str, i64 0, i64 0), i32* %4)
  br label %9

9:                                                ; preds = %38, %20, %0
  %10 = load i32, i32* %4, align 4
  %11 = add nsw i32 %10, -1
  store i32 %11, i32* %4, align 4
  %12 = icmp ne i32 %10, 0
  br i1 %12, label %13, label %41

13:                                               ; preds = %9
  %14 = call i32 (i8*, ...) @__isoc99_scanf(i8* getelementptr inbounds ([3 x i8], [3 x i8]* @.str, i64 0, i64 0), i32* %5)
  %15 = load i32, i32* %5, align 4
  %16 = icmp eq i32 %15, 1
  br i1 %16, label %20, label %17

17:                                               ; preds = %13
  %18 = load i32, i32* %5, align 4
  %19 = icmp eq i32 %18, 2
  br i1 %19, label %20, label %22

20:                                               ; preds = %17, %13
  %21 = call i32 (i8*, ...) @printf(i8* getelementptr inbounds ([3 x i8], [3 x i8]* @.str.1, i64 0, i64 0))
  br label %9

22:                                               ; preds = %17
  %23 = load i32, i32* %5, align 4
  %24 = sub nsw i32 %23, 2
  store i32 %24, i32* %5, align 4
  store i32 1, i32* %2, align 4
  store i32 1, i32* %3, align 4
  store i32 0, i32* %7, align 4
  store i32 0, i32* %6, align 4
  br label %25

25:                                               ; preds = %35, %22
  %26 = load i32, i32* %6, align 4
  %27 = load i32, i32* %5, align 4
  %28 = icmp slt i32 %26, %27
  br i1 %28, label %29, label %38

29:                                               ; preds = %25
  %30 = load i32, i32* %2, align 4
  %31 = load i32, i32* %3, align 4
  %32 = add nsw i32 %30, %31
  store i32 %32, i32* %7, align 4
  %33 = load i32, i32* %3, align 4
  store i32 %33, i32* %2, align 4
  %34 = load i32, i32* %7, align 4
  store i32 %34, i32* %3, align 4
  br label %35

35:                                               ; preds = %29
  %36 = load i32, i32* %6, align 4
  %37 = add nsw i32 %36, 1
  store i32 %37, i32* %6, align 4
  br label %25

38:                                               ; preds = %25
  %39 = load i32, i32* %7, align 4
  %40 = call i32 (i8*, ...) @printf(i8* getelementptr inbounds ([4 x i8], [4 x i8]* @.str.2, i64 0, i64 0), i32 %39)
  br label %9

41:                                               ; preds = %9
  ret i32 0
}

declare dso_local i32 @__isoc99_scanf(i8*, ...) #1

declare dso_local i32 @printf(i8*, ...) #1


!llvm.module.flags = !{!0}
!llvm.ident = !{!1}

!0 = !{i32 1, !"wchar_size", i32 4}
!1 = !{!"clang version 10.0.0-4ubuntu1 "}
